; Function Attrs: nounwind uwtable
define i32 @CVodeSVtolerancesB(ptr noundef %0, i32 noundef %1, double noundef %2, ptr noundef %3) local_unnamed_addr #0 {
  %5 = icmp eq ptr %0, null
  br i1 %5, label %6, label %7

6:                                                ; preds = %4
  tail call void (ptr, i32, ptr, ptr, ptr, ...) @cvProcessError(ptr noundef null, i32 noundef -21, ptr noundef nonnull @.str, ptr noundef nonnull @.str.18, ptr noundef nonnull @.str.2) #8
  br label %26

7:                                                ; preds = %4
  %8 = getelementptr inbounds nuw i8, ptr %0, i64 2200
  %9 = load i32, ptr %8, align 8, !tbaa !47
  %10 = icmp eq i32 %9, 0
  br i1 %10, label %11, label %12

11:                                               ; preds = %7
  tail call void (ptr, i32, ptr, ptr, ptr, ...) @cvProcessError(ptr noundef nonnull %0, i32 noundef -101, ptr noundef nonnull @.str, ptr noundef nonnull @.str.18, ptr noundef nonnull @.str.7) #8
  br label %26

12:                                               ; preds = %7
  %13 = getelementptr inbounds nuw i8, ptr %0, i64 2192
  %14 = load ptr, ptr %13, align 8, !tbaa !3
  %15 = getelementptr inbounds nuw i8, ptr %14, i64 40
  %16 = load i32, ptr %15, align 8, !tbaa !42
  %.not = icmp slt i32 %1, %16
  br i1 %.not, label %18, label %17

17:                                               ; preds = %12
  tail call void (ptr, i32, ptr, ptr, ptr, ...) @cvProcessError(ptr noundef nonnull %0, i32 noundef -22, ptr noundef nonnull @.str, ptr noundef nonnull @.str.18, ptr noundef nonnull @.str.14) #8
  br label %26

18:                                               ; preds = %12
  %19 = getelementptr inbounds nuw i8, ptr %14, i64 32
  br label %.lr.ph

.lr.ph:                                           ; preds = %.lr.ph, %18
  %.018.sink.in = phi ptr [ %22, %.lr.ph ], [ %19, %18 ]
  %.018.sink = load ptr, ptr %.018.sink.in, align 8, !tbaa !122, !nonnull !204, !noundef !204
  %20 = load i32, ptr %.018.sink, align 8, !tbaa !203
  %21 = icmp eq i32 %1, %20
  %22 = getelementptr inbounds nuw i8, ptr %.018.sink, i64 120
  br i1 %21, label %._crit_edge, label %.lr.ph

._crit_edge:                                      ; preds = %.lr.ph
  %23 = getelementptr inbounds nuw i8, ptr %.018.sink, i64 16
  %24 = load ptr, ptr %23, align 8, !tbaa !123
  %25 = tail call i32 @CVodeSVtolerances(ptr noundef %24, double noundef %2, ptr noundef %3) #8
  br label %26

26:                                               ; preds = %._crit_edge, %17, %11, %6
  %.0 = phi i32 [ -21, %6 ], [ -101, %11 ], [ -22, %17 ], [ %25, %._crit_edge ]
  ret i32 %.0
}